target datalayout = "e-m:e-p270:32:32-p271:32:32-p272:64:64-i64:64-i128:128-f80:128-n8:16:32:64-S128"
target triple = "x86_64-pc-linux-gnu"

%struct.DdManager = type { %struct.DdNode, ptr, ptr, ptr, ptr, ptr, ptr, ptr, i32, i32, double, double, double, i32, i32, i32, i32, i32, i32, ptr, ptr, %struct.DdSubtable, i32, i32, i32, i32, i32, i32, i32, double, i32, i32, i32, ptr, i64, double, i32, ptr, ptr, ptr, ptr, ptr, ptr, ptr, i32, ptr, ptr, ptr, ptr, ptr, ptr, i32, i32, i32, double, i32, i32, i32, i32, double, double, i32, i32, i32, i32, i32, i32, i32, i32, i32, ptr, ptr, i32, i32, i32, i32, i32, i32, ptr, ptr, ptr, ptr, ptr, ptr, ptr, ptr, i32, i64, i64, i64, i32, i64, i64, double, double, double, double, double, double, i32, ptr, ptr, i64 }
%struct.DdNode = type { i32, i32, ptr, %union.anon, i64 }
%union.anon = type { %struct.DdChildren }
%struct.DdChildren = type { ptr, ptr }
%struct.DdSubtable = type { ptr, i32, i32, i32, i32, i32, i32, i32, i32, i32, i32, i32 }

@.str = private unnamed_addr constant [2 x i8] c"0\00", align 1
@.str.1 = private unnamed_addr constant [2 x i8] c"1\00", align 1
@.str.2 = private unnamed_addr constant [2 x i8] c"-\00", align 1
@.str.3 = private unnamed_addr constant [2 x i8] c"?\00", align 1
@.str.4 = private unnamed_addr constant [4 x i8] c" 1\0A\00", align 1
@.str.5 = private unnamed_addr constant [2 x i8] c"\0A\00", align 1

; Function Attrs: nounwind uwtable
define i32 @Cudd_BddToCubeArray(ptr noundef %0, ptr noundef %1, ptr noundef %2) #0 {
  %4 = alloca i32, align 4
  %5 = alloca ptr, align 8
  %6 = alloca ptr, align 8
  %7 = alloca ptr, align 8
  %8 = alloca ptr, align 8
  %9 = alloca ptr, align 8
  %10 = alloca ptr, align 8
  %11 = alloca i32, align 4
  %12 = alloca i32, align 4
  %13 = alloca ptr, align 8
  %14 = alloca i32, align 4
  store ptr %0, ptr %5, align 8
  store ptr %1, ptr %6, align 8
  store ptr %2, ptr %7, align 8
  %15 = load ptr, ptr %5, align 8
  %16 = call i32 @Cudd_ReadSize(ptr noundef %15)
  store i32 %16, ptr %12, align 4
  %17 = load ptr, ptr %5, align 8
  %18 = getelementptr inbounds %struct.DdManager, ptr %17, i32 0, i32 1
  %19 = load ptr, ptr %18, align 8
  %20 = ptrtoint ptr %19 to i64
  %21 = xor i64 %20, 1
  %22 = inttoptr i64 %21 to ptr
  store ptr %22, ptr %13, align 8
  %23 = load i32, ptr %12, align 4
  %24 = sub nsw i32 %23, 1
  store i32 %24, ptr %11, align 4
  br label %25

25:                                               ; preds = %33, %3
  %26 = load i32, ptr %11, align 4
  %27 = icmp sge i32 %26, 0
  br i1 %27, label %28, label %36

28:                                               ; preds = %25
  %29 = load ptr, ptr %7, align 8
  %30 = load i32, ptr %11, align 4
  %31 = sext i32 %30 to i64
  %32 = getelementptr inbounds i32, ptr %29, i64 %31
  store i32 2, ptr %32, align 4
  br label %33

33:                                               ; preds = %28
  %34 = load i32, ptr %11, align 4
  %35 = add nsw i32 %34, -1
  store i32 %35, ptr %11, align 4
  br label %25, !llvm.loop !9

36:                                               ; preds = %25
  %37 = load ptr, ptr %6, align 8
  store ptr %37, ptr %8, align 8
  br label %38

38:                                               ; preds = %76, %36
  %39 = load ptr, ptr %8, align 8
  %40 = ptrtoint ptr %39 to i64
  %41 = and i64 %40, -2
  %42 = inttoptr i64 %41 to ptr
  %43 = getelementptr inbounds %struct.DdNode, ptr %42, i32 0, i32 0
  %44 = load i32, ptr %43, align 8
  %45 = icmp eq i32 %44, 2147483647
  %46 = xor i1 %45, true
  br i1 %46, label %47, label %77

47:                                               ; preds = %38
  %48 = load ptr, ptr %8, align 8
  %49 = ptrtoint ptr %48 to i64
  %50 = and i64 %49, -2
  %51 = inttoptr i64 %50 to ptr
  %52 = getelementptr inbounds %struct.DdNode, ptr %51, i32 0, i32 0
  %53 = load i32, ptr %52, align 8
  store i32 %53, ptr %14, align 4
  %54 = load ptr, ptr %8, align 8
  call void @cuddGetBranches(ptr noundef %54, ptr noundef %9, ptr noundef %10)
  %55 = load ptr, ptr %9, align 8
  %56 = load ptr, ptr %13, align 8
  %57 = icmp eq ptr %55, %56
  br i1 %57, label %58, label %64

58:                                               ; preds = %47
  %59 = load ptr, ptr %7, align 8
  %60 = load i32, ptr %14, align 4
  %61 = sext i32 %60 to i64
  %62 = getelementptr inbounds i32, ptr %59, i64 %61
  store i32 0, ptr %62, align 4
  %63 = load ptr, ptr %10, align 8
  store ptr %63, ptr %8, align 8
  br label %76

64:                                               ; preds = %47
  %65 = load ptr, ptr %10, align 8
  %66 = load ptr, ptr %13, align 8
  %67 = icmp eq ptr %65, %66
  br i1 %67, label %68, label %74

68:                                               ; preds = %64
  %69 = load ptr, ptr %7, align 8
  %70 = load i32, ptr %14, align 4
  %71 = sext i32 %70 to i64
  %72 = getelementptr inbounds i32, ptr %69, i64 %71
  store i32 1, ptr %72, align 4
  %73 = load ptr, ptr %9, align 8
  store ptr %73, ptr %8, align 8
  br label %75

74:                                               ; preds = %64
  store i32 0, ptr %4, align 4
  br label %83

75:                                               ; preds = %68
  br label %76

76:                                               ; preds = %75, %58
  br label %38, !llvm.loop !10

77:                                               ; preds = %38
  %78 = load ptr, ptr %8, align 8
  %79 = load ptr, ptr %13, align 8
  %80 = icmp eq ptr %78, %79
  br i1 %80, label %81, label %82

81:                                               ; preds = %77
  store i32 0, ptr %4, align 4
  br label %83

82:                                               ; preds = %77
  store i32 1, ptr %4, align 4
  br label %83

83:                                               ; preds = %82, %81, %74
  %84 = load i32, ptr %4, align 4
  ret i32 %84
}

; Function Attrs: nounwind uwtable
define i32 @Cudd_bddPrintCover(ptr noundef %0, ptr noundef %1, ptr noundef %2) #0 {
  %4 = alloca i32, align 4
  %5 = alloca ptr, align 8
  %6 = alloca ptr, align 8
  %7 = alloca ptr, align 8
  %8 = alloca ptr, align 8
  %9 = alloca i32, align 4
  %10 = alloca i32, align 4
  %11 = alloca ptr, align 8
  %12 = alloca ptr, align 8
  %13 = alloca ptr, align 8
  %14 = alloca ptr, align 8
  %15 = alloca i32, align 4
  store ptr %0, ptr %5, align 8
  store ptr %1, ptr %6, align 8
  store ptr %2, ptr %7, align 8
  %16 = load ptr, ptr %5, align 8
  %17 = call i32 @Cudd_ReadSize(ptr noundef %16)
  %18 = sext i32 %17 to i64
  %19 = mul i64 4, %18
  %20 = call noalias ptr @malloc(i64 noundef %19) #5
  store ptr %20, ptr %8, align 8
  %21 = load ptr, ptr %8, align 8
  %22 = icmp eq ptr %21, null
  br i1 %22, label %23, label %24

23:                                               ; preds = %3
  store i32 0, ptr %4, align 4
  br label %193

24:                                               ; preds = %3
  %25 = load ptr, ptr %6, align 8
  store ptr %25, ptr %11, align 8
  %26 = load ptr, ptr %11, align 8
  %27 = ptrtoint ptr %26 to i64
  %28 = and i64 %27, -2
  %29 = inttoptr i64 %28 to ptr
  %30 = getelementptr inbounds %struct.DdNode, ptr %29, i32 0, i32 1
  %31 = load i32, ptr %30, align 4
  %32 = add i32 %31, 1
  store i32 %32, ptr %30, align 4
  br label %33

33:                                               ; preds = %173, %24
  %34 = load ptr, ptr %11, align 8
  %35 = load ptr, ptr %5, align 8
  %36 = call ptr @Cudd_ReadLogicZero(ptr noundef %35)
  %37 = icmp ne ptr %34, %36
  br i1 %37, label %38, label %180

38:                                               ; preds = %33
  %39 = load ptr, ptr %5, align 8
  %40 = load ptr, ptr %11, align 8
  %41 = call ptr @Cudd_LargestCube(ptr noundef %39, ptr noundef %40, ptr noundef %15)
  store ptr %41, ptr %12, align 8
  %42 = load ptr, ptr %12, align 8
  %43 = icmp eq ptr %42, null
  br i1 %43, label %44, label %53

44:                                               ; preds = %38
  %45 = load ptr, ptr %5, align 8
  %46 = load ptr, ptr %11, align 8
  call void @Cudd_RecursiveDeref(ptr noundef %45, ptr noundef %46)
  %47 = load ptr, ptr %8, align 8
  %48 = icmp ne ptr %47, null
  br i1 %48, label %49, label %51

49:                                               ; preds = %44
  %50 = load ptr, ptr %8, align 8
  call void @free(ptr noundef %50) #6
  store ptr null, ptr %8, align 8
  br label %52

51:                                               ; preds = %44
  br label %52

52:                                               ; preds = %51, %49
  store i32 0, ptr %4, align 4
  br label %193

53:                                               ; preds = %38
  %54 = load ptr, ptr %12, align 8
  %55 = ptrtoint ptr %54 to i64
  %56 = and i64 %55, -2
  %57 = inttoptr i64 %56 to ptr
  %58 = getelementptr inbounds %struct.DdNode, ptr %57, i32 0, i32 1
  %59 = load i32, ptr %58, align 4
  %60 = add i32 %59, 1
  store i32 %60, ptr %58, align 4
  %61 = load ptr, ptr %5, align 8
  %62 = load ptr, ptr %12, align 8
  %63 = load ptr, ptr %7, align 8
  %64 = call ptr @Cudd_bddMakePrime(ptr noundef %61, ptr noundef %62, ptr noundef %63)
  store ptr %64, ptr %13, align 8
  %65 = load ptr, ptr %13, align 8
  %66 = icmp eq ptr %65, null
  br i1 %66, label %67, label %78

67:                                               ; preds = %53
  %68 = load ptr, ptr %5, align 8
  %69 = load ptr, ptr %11, align 8
  call void @Cudd_RecursiveDeref(ptr noundef %68, ptr noundef %69)
  %70 = load ptr, ptr %5, align 8
  %71 = load ptr, ptr %12, align 8
  call void @Cudd_RecursiveDeref(ptr noundef %70, ptr noundef %71)
  %72 = load ptr, ptr %8, align 8
  %73 = icmp ne ptr %72, null
  br i1 %73, label %74, label %76

74:                                               ; preds = %67
  %75 = load ptr, ptr %8, align 8
  call void @free(ptr noundef %75) #6
  store ptr null, ptr %8, align 8
  br label %77

76:                                               ; preds = %67
  br label %77

77:                                               ; preds = %76, %74
  store i32 0, ptr %4, align 4
  br label %193

78:                                               ; preds = %53
  %79 = load ptr, ptr %13, align 8
  %80 = ptrtoint ptr %79 to i64
  %81 = and i64 %80, -2
  %82 = inttoptr i64 %81 to ptr
  %83 = getelementptr inbounds %struct.DdNode, ptr %82, i32 0, i32 1
  %84 = load i32, ptr %83, align 4
  %85 = add i32 %84, 1
  store i32 %85, ptr %83, align 4
  %86 = load ptr, ptr %5, align 8
  %87 = load ptr, ptr %12, align 8
  call void @Cudd_RecursiveDeref(ptr noundef %86, ptr noundef %87)
  %88 = load ptr, ptr %5, align 8
  %89 = load ptr, ptr %11, align 8
  %90 = load ptr, ptr %13, align 8
  %91 = ptrtoint ptr %90 to i64
  %92 = xor i64 %91, 1
  %93 = inttoptr i64 %92 to ptr
  %94 = call ptr @Cudd_bddAnd(ptr noundef %88, ptr noundef %89, ptr noundef %93)
  store ptr %94, ptr %14, align 8
  %95 = load ptr, ptr %14, align 8
  %96 = icmp eq ptr %95, null
  br i1 %96, label %97, label %108

97:                                               ; preds = %78
  %98 = load ptr, ptr %5, align 8
  %99 = load ptr, ptr %11, align 8
  call void @Cudd_RecursiveDeref(ptr noundef %98, ptr noundef %99)
  %100 = load ptr, ptr %5, align 8
  %101 = load ptr, ptr %13, align 8
  call void @Cudd_RecursiveDeref(ptr noundef %100, ptr noundef %101)
  %102 = load ptr, ptr %8, align 8
  %103 = icmp ne ptr %102, null
  br i1 %103, label %104, label %106

104:                                              ; preds = %97
  %105 = load ptr, ptr %8, align 8
  call void @free(ptr noundef %105) #6
  store ptr null, ptr %8, align 8
  br label %107

106:                                              ; preds = %97
  br label %107

107:                                              ; preds = %106, %104
  store i32 0, ptr %4, align 4
  br label %193

108:                                              ; preds = %78
  %109 = load ptr, ptr %14, align 8
  %110 = ptrtoint ptr %109 to i64
  %111 = and i64 %110, -2
  %112 = inttoptr i64 %111 to ptr
  %113 = getelementptr inbounds %struct.DdNode, ptr %112, i32 0, i32 1
  %114 = load i32, ptr %113, align 4
  %115 = add i32 %114, 1
  store i32 %115, ptr %113, align 4
  %116 = load ptr, ptr %5, align 8
  %117 = load ptr, ptr %11, align 8
  call void @Cudd_RecursiveDeref(ptr noundef %116, ptr noundef %117)
  %118 = load ptr, ptr %14, align 8
  store ptr %118, ptr %11, align 8
  %119 = load ptr, ptr %5, align 8
  %120 = load ptr, ptr %13, align 8
  %121 = load ptr, ptr %8, align 8
  %122 = call i32 @Cudd_BddToCubeArray(ptr noundef %119, ptr noundef %120, ptr noundef %121)
  store i32 %122, ptr %10, align 4
  %123 = load i32, ptr %10, align 4
  %124 = icmp eq i32 %123, 0
  br i1 %124, label %125, label %136

125:                                              ; preds = %108
  %126 = load ptr, ptr %5, align 8
  %127 = load ptr, ptr %11, align 8
  call void @Cudd_RecursiveDeref(ptr noundef %126, ptr noundef %127)
  %128 = load ptr, ptr %5, align 8
  %129 = load ptr, ptr %13, align 8
  call void @Cudd_RecursiveDeref(ptr noundef %128, ptr noundef %129)
  %130 = load ptr, ptr %8, align 8
  %131 = icmp ne ptr %130, null
  br i1 %131, label %132, label %134

132:                                              ; preds = %125
  %133 = load ptr, ptr %8, align 8
  call void @free(ptr noundef %133) #6
  store ptr null, ptr %8, align 8
  br label %135

134:                                              ; preds = %125
  br label %135

135:                                              ; preds = %134, %132
  store i32 0, ptr %4, align 4
  br label %193

136:                                              ; preds = %108
  store i32 0, ptr %9, align 4
  br label %137

137:                                              ; preds = %170, %136
  %138 = load i32, ptr %9, align 4
  %139 = load ptr, ptr %5, align 8
  %140 = getelementptr inbounds %struct.DdManager, ptr %139, i32 0, i32 15
  %141 = load i32, ptr %140, align 8
  %142 = icmp slt i32 %138, %141
  br i1 %142, label %143, label %173

143:                                              ; preds = %137
  %144 = load ptr, ptr %8, align 8
  %145 = load i32, ptr %9, align 4
  %146 = sext i32 %145 to i64
  %147 = getelementptr inbounds i32, ptr %144, i64 %146
  %148 = load i32, ptr %147, align 4
  switch i32 %148, label %164 [
    i32 0, label %149
    i32 1, label %154
    i32 2, label %159
  ]

149:                                              ; preds = %143
  %150 = load ptr, ptr %5, align 8
  %151 = getelementptr inbounds %struct.DdManager, ptr %150, i32 0, i32 84
  %152 = load ptr, ptr %151, align 8
  %153 = call i32 (ptr, ptr, ...) @fprintf(ptr noundef %152, ptr noundef @.str) #6
  br label %169

154:                                              ; preds = %143
  %155 = load ptr, ptr %5, align 8
  %156 = getelementptr inbounds %struct.DdManager, ptr %155, i32 0, i32 84
  %157 = load ptr, ptr %156, align 8
  %158 = call i32 (ptr, ptr, ...) @fprintf(ptr noundef %157, ptr noundef @.str.1) #6
  br label %169

159:                                              ; preds = %143
  %160 = load ptr, ptr %5, align 8
  %161 = getelementptr inbounds %struct.DdManager, ptr %160, i32 0, i32 84
  %162 = load ptr, ptr %161, align 8
  %163 = call i32 (ptr, ptr, ...) @fprintf(ptr noundef %162, ptr noundef @.str.2) #6
  br label %169

164:                                              ; preds = %143
  %165 = load ptr, ptr %5, align 8
  %166 = getelementptr inbounds %struct.DdManager, ptr %165, i32 0, i32 84
  %167 = load ptr, ptr %166, align 8
  %168 = call i32 (ptr, ptr, ...) @fprintf(ptr noundef %167, ptr noundef @.str.3) #6
  br label %169

169:                                              ; preds = %164, %159, %154, %149
  br label %170

170:                                              ; preds = %169
  %171 = load i32, ptr %9, align 4
  %172 = add nsw i32 %171, 1
  store i32 %172, ptr %9, align 4
  br label %137, !llvm.loop !7

173:                                              ; preds = %137
  %174 = load ptr, ptr %5, align 8
  %175 = getelementptr inbounds %struct.DdManager, ptr %174, i32 0, i32 84
  %176 = load ptr, ptr %175, align 8
  %177 = call i32 (ptr, ptr, ...) @fprintf(ptr noundef %176, ptr noundef @.str.4) #6
  %178 = load ptr, ptr %5, align 8
  %179 = load ptr, ptr %13, align 8
  call void @Cudd_RecursiveDeref(ptr noundef %178, ptr noundef %179)
  br label %33, !llvm.loop !8

180:                                              ; preds = %33
  %181 = load ptr, ptr %5, align 8
  %182 = getelementptr inbounds %struct.DdManager, ptr %181, i32 0, i32 84
  %183 = load ptr, ptr %182, align 8
  %184 = call i32 (ptr, ptr, ...) @fprintf(ptr noundef %183, ptr noundef @.str.5) #6
  %185 = load ptr, ptr %5, align 8
  %186 = load ptr, ptr %11, align 8
  call void @Cudd_RecursiveDeref(ptr noundef %185, ptr noundef %186)
  %187 = load ptr, ptr %8, align 8
  %188 = icmp ne ptr %187, null
  br i1 %188, label %189, label %191

189:                                              ; preds = %180
  %190 = load ptr, ptr %8, align 8
  call void @free(ptr noundef %190) #6
  store ptr null, ptr %8, align 8
  br label %192

191:                                              ; preds = %180
  br label %192

192:                                              ; preds = %191, %189
  store i32 1, ptr %4, align 4
  br label %193

193:                                              ; preds = %192, %135, %107, %77, %52, %23
  %194 = load i32, ptr %4, align 4
  ret i32 %194
}