; Function Attrs: nounwind uwtable
define range(i32 0, 2) i32 @Cudd_bddPrintCover(ptr noundef %0, ptr noundef %1, ptr noundef %2) local_unnamed_addr #0 {
  %4 = alloca ptr, align 8
  %5 = alloca ptr, align 8
  %6 = alloca i32, align 4
  %7 = tail call i32 @Cudd_ReadSize(ptr noundef %0) #23
  %8 = sext i32 %7 to i64
  %9 = shl nsw i64 %8, 2
  %10 = tail call noalias ptr @malloc(i64 noundef %9) #22
  %11 = icmp eq ptr %10, null
  br i1 %11, label %98, label %12

12:                                               ; preds = %3
  %13 = ptrtoint ptr %1 to i64
  %14 = and i64 %13, -2
  %15 = inttoptr i64 %14 to ptr
  %16 = getelementptr inbounds nuw i8, ptr %15, i64 4
  %17 = load i32, ptr %16, align 4
  %18 = add i32 %17, 1
  store i32 %18, ptr %16, align 4
  %19 = tail call ptr @Cudd_ReadLogicZero(ptr noundef %0) #23
  %.not97 = icmp eq ptr %1, %19
  br i1 %.not97, label %._crit_edge101, label %.lr.ph100

.lr.ph100:                                        ; preds = %12
  %20 = getelementptr inbounds nuw i8, ptr %0, i64 40
  %21 = getelementptr inbounds nuw i8, ptr %0, i64 136
  %22 = getelementptr inbounds nuw i8, ptr %0, i64 608
  br label %23

23:                                               ; preds = %.lr.ph100, %._crit_edge
  %.06998 = phi ptr [ %1, %.lr.ph100 ], [ %45, %._crit_edge ]
  %24 = call ptr @Cudd_LargestCube(ptr noundef %0, ptr noundef %.06998, ptr noundef nonnull %6) #23
  %25 = icmp eq ptr %24, null
  br i1 %25, label %.sink.split, label %26

26:                                               ; preds = %23
  %27 = ptrtoint ptr %24 to i64
  %28 = and i64 %27, -2
  %29 = inttoptr i64 %28 to ptr
  %30 = getelementptr inbounds nuw i8, ptr %29, i64 4
  %31 = load i32, ptr %30, align 4
  %32 = add i32 %31, 1
  store i32 %32, ptr %30, align 4
  %33 = call ptr @Cudd_bddMakePrime(ptr noundef %0, ptr noundef nonnull %24, ptr noundef %2) #23
  %34 = icmp eq ptr %33, null
  br i1 %34, label %35, label %36

35:                                               ; preds = %26
  call void @Cudd_RecursiveDeref(ptr noundef %0, ptr noundef %.06998) #23
  br label %.sink.split

36:                                               ; preds = %26
  %37 = ptrtoint ptr %33 to i64
  %38 = and i64 %37, -2
  %39 = inttoptr i64 %38 to ptr
  %40 = getelementptr inbounds nuw i8, ptr %39, i64 4
  %41 = load i32, ptr %40, align 4
  %42 = add i32 %41, 1
  store i32 %42, ptr %40, align 4
  call void @Cudd_RecursiveDeref(ptr noundef %0, ptr noundef nonnull %24) #23
  %43 = xor i64 %37, 1
  %44 = inttoptr i64 %43 to ptr
  %45 = call ptr @Cudd_bddAnd(ptr noundef %0, ptr noundef %.06998, ptr noundef %44) #23
  %46 = icmp eq ptr %45, null
  br i1 %46, label %47, label %48

47:                                               ; preds = %36
  call void @Cudd_RecursiveDeref(ptr noundef %0, ptr noundef %.06998) #23
  br label %.sink.split

48:                                               ; preds = %36
  %49 = ptrtoint ptr %45 to i64
  %50 = and i64 %49, -2
  %51 = inttoptr i64 %50 to ptr
  %52 = getelementptr inbounds nuw i8, ptr %51, i64 4
  %53 = load i32, ptr %52, align 4
  %54 = add i32 %53, 1
  store i32 %54, ptr %52, align 4
  call void @Cudd_RecursiveDeref(ptr noundef %0, ptr noundef %.06998) #23
  call void @llvm.lifetime.start.p0(i64 8, ptr nonnull %4)
  call void @llvm.lifetime.start.p0(i64 8, ptr nonnull %5)
  %55 = call i32 @Cudd_ReadSize(ptr noundef %0) #23
  %56 = load ptr, ptr %20, align 8
  %57 = ptrtoint ptr %56 to i64
  %58 = xor i64 %57, 1
  %59 = inttoptr i64 %58 to ptr
  %60 = icmp sgt i32 %55, 0
  br i1 %60, label %.lr.ph.preheader.i, label %.preheader.i

.lr.ph.preheader.i:                               ; preds = %48
  %61 = zext nneg i32 %55 to i64
  br label %.lr.ph.i

.preheader.i:                                     ; preds = %.lr.ph.i, %48
  %62 = load i32, ptr %39, align 8
  %.not24.i = icmp eq i32 %62, 2147483647
  br i1 %.not24.i, label %Cudd_BddToCubeArray.exit, label %.lr.ph26.i

.lr.ph.i:                                         ; preds = %.lr.ph.i, %.lr.ph.preheader.i
  %indvars.iv.i = phi i64 [ %61, %.lr.ph.preheader.i ], [ %indvars.iv.next.i, %.lr.ph.i ]
  %indvars.iv.next.i = add nsw i64 %indvars.iv.i, -1
  %63 = getelementptr inbounds nuw i32, ptr %10, i64 %indvars.iv.next.i
  store i32 2, ptr %63, align 4
  %64 = icmp samesign ugt i64 %indvars.iv.i, 1
  br i1 %64, label %.lr.ph.i, label %.preheader.i, !llvm.loop !7

.lr.ph26.i:                                       ; preds = %.preheader.i, %77
  %65 = phi i32 [ %81, %77 ], [ %62, %.preheader.i ]
  %.01925.i = phi ptr [ %.1.i, %77 ], [ %33, %.preheader.i ]
  call void @cuddGetBranches(ptr noundef %.01925.i, ptr noundef nonnull %4, ptr noundef nonnull %5) #23
  %66 = load ptr, ptr %4, align 8
  %67 = icmp eq ptr %66, %59
  br i1 %67, label %68, label %71

68:                                               ; preds = %.lr.ph26.i
  %69 = sext i32 %65 to i64
  %70 = getelementptr inbounds i32, ptr %10, i64 %69
  store i32 0, ptr %70, align 4
  %.1.pre.i = load ptr, ptr %5, align 8
  br label %77

71:                                               ; preds = %.lr.ph26.i
  %72 = load ptr, ptr %5, align 8
  %73 = icmp eq ptr %72, %59
  br i1 %73, label %74, label %Cudd_BddToCubeArray.exit.thread

Cudd_BddToCubeArray.exit.thread:                  ; preds = %71
  call void @llvm.lifetime.end.p0(i64 8, ptr nonnull %4)
  call void @llvm.lifetime.end.p0(i64 8, ptr nonnull %5)
  br label %.loopexit

74:                                               ; preds = %71
  %75 = sext i32 %65 to i64
  %76 = getelementptr inbounds i32, ptr %10, i64 %75
  store i32 1, ptr %76, align 4
  br label %77

77:                                               ; preds = %74, %68
  %.1.i = phi ptr [ %.1.pre.i, %68 ], [ %66, %74 ]
  %78 = ptrtoint ptr %.1.i to i64
  %79 = and i64 %78, -2
  %80 = inttoptr i64 %79 to ptr
  %81 = load i32, ptr %80, align 8
  %.not.i = icmp eq i32 %81, 2147483647
  br i1 %.not.i, label %Cudd_BddToCubeArray.exit, label %.lr.ph26.i, !llvm.loop !8

Cudd_BddToCubeArray.exit:                         ; preds = %77, %.preheader.i
  %.019.lcssa.i = phi ptr [ %33, %.preheader.i ], [ %.1.i, %77 ]
  %.not79 = icmp eq ptr %.019.lcssa.i, %59
  call void @llvm.lifetime.end.p0(i64 8, ptr nonnull %4)
  call void @llvm.lifetime.end.p0(i64 8, ptr nonnull %5)
  br i1 %.not79, label %.loopexit, label %.preheader

.preheader:                                       ; preds = %Cudd_BddToCubeArray.exit
  %82 = load i32, ptr %21, align 8
  %83 = icmp sgt i32 %82, 0
  br i1 %83, label %.lr.ph, label %._crit_edge

.loopexit:                                        ; preds = %Cudd_BddToCubeArray.exit, %Cudd_BddToCubeArray.exit.thread
  call void @Cudd_RecursiveDeref(ptr noundef %0, ptr noundef nonnull %45) #23
  br label %.sink.split

.lr.ph:                                           ; preds = %.preheader, %89
  %indvars.iv = phi i64 [ %indvars.iv.next, %89 ], [ 0, %.preheader ]
  %84 = getelementptr inbounds nuw i32, ptr %10, i64 %indvars.iv
  %85 = load i32, ptr %84, align 4
  %86 = load ptr, ptr %22, align 8
  %87 = icmp ult i32 %85, 3
  br i1 %87, label %switch.lookup, label %89

switch.lookup:                                    ; preds = %.lr.ph
  %88 = zext nneg i32 %85 to i64
  %switch.gep = getelementptr inbounds nuw [3 x i32], ptr @switch.table.Cudd_bddPrintCover, i64 0, i64 %88
  %switch.load = load i32, ptr %switch.gep, align 4
  br label %89

89:                                               ; preds = %.lr.ph, %switch.lookup
  %.sink = phi i32 [ %switch.load, %switch.lookup ], [ 63, %.lr.ph ]
  %fputc76 = call i32 @fputc(i32 %.sink, ptr %86)
  %indvars.iv.next = add nuw nsw i64 %indvars.iv, 1
  %90 = load i32, ptr %21, align 8
  %91 = sext i32 %90 to i64
  %92 = icmp slt i64 %indvars.iv.next, %91
  br i1 %92, label %.lr.ph, label %._crit_edge, !llvm.loop !9

._crit_edge:                                      ; preds = %89, %.preheader
  %93 = load ptr, ptr %22, align 8
  %94 = call i64 @fwrite(ptr nonnull @.str.4, i64 3, i64 1, ptr %93)
  call void @Cudd_RecursiveDeref(ptr noundef nonnull %0, ptr noundef nonnull %33) #23
  %95 = call ptr @Cudd_ReadLogicZero(ptr noundef nonnull %0) #23
  %.not = icmp eq ptr %45, %95
  br i1 %.not, label %._crit_edge101, label %23, !llvm.loop !10

._crit_edge101:                                   ; preds = %._crit_edge, %12
  %.069.lcssa = phi ptr [ %1, %12 ], [ %45, %._crit_edge ]
  %96 = getelementptr inbounds nuw i8, ptr %0, i64 608
  %97 = load ptr, ptr %96, align 8
  %fputc = call i32 @fputc(i32 10, ptr %97)
  br label %.sink.split

.sink.split:                                      ; preds = %23, %35, %47, %.loopexit, %._crit_edge101
  %.069.lcssa.sink = phi ptr [ %.069.lcssa, %._crit_edge101 ], [ %33, %.loopexit ], [ %33, %47 ], [ %24, %35 ], [ %.06998, %23 ]
  %.0.ph = phi i32 [ 1, %._crit_edge101 ], [ 0, %.loopexit ], [ 0, %47 ], [ 0, %35 ], [ 0, %23 ]
  call void @Cudd_RecursiveDeref(ptr noundef %0, ptr noundef %.069.lcssa.sink) #23
  call void @free(ptr noundef %10) #23
  br label %98

98:                                               ; preds = %.sink.split, %3
  %.0 = phi i32 [ 0, %3 ], [ %.0.ph, %.sink.split ]
  ret i32 %.0
}